target datalayout = "e-m:e-p270:32:32-p271:32:32-p272:64:64-i64:64-i128:128-f80:128-n8:16:32:64-S128"
target triple = "x86_64-pc-linux-gnu"

%struct.aclSelector = type { i32, [16 x i64], ptr, ptr, ptr, ptr }
%struct.redisCommand = type { ptr, ptr, ptr, ptr, i32, ptr, ptr, i32, ptr, i32, ptr, i32, ptr, i32, i64, i64, ptr, i32, ptr, i32, ptr, ptr, i64, i64, i64, i64, i32, ptr, ptr, %struct.keySpec, ptr, ptr, ptr }
%struct.keySpec = type { ptr, i64, i32, %union.anon, i32, %union.anon.2 }
%union.anon = type { %struct.anon.1 }
%struct.anon.1 = type { ptr, i32 }
%union.anon.2 = type { %struct.anon.3 }
%struct.anon.3 = type { i32, i32, i32 }

; Function Attrs: nounwind uwtable
define dso_local i32 @ACLGetCommandBitCoordinates(i64 noundef %0, ptr noundef %1, ptr noundef %2) #0 {
  %4 = alloca i32, align 4
  %5 = alloca i64, align 8
  %6 = alloca ptr, align 8
  %7 = alloca ptr, align 8
  store i64 %0, ptr %5, align 8, !tbaa !10
  store ptr %1, ptr %6, align 8, !tbaa !105
  store ptr %2, ptr %7, align 8, !tbaa !105
  %8 = load i64, ptr %5, align 8, !tbaa !10
  %9 = icmp uge i64 %8, 1024
  br i1 %9, label %10, label %11

10:                                               ; preds = %3
  store i32 -1, ptr %4, align 4
  br label %20

11:                                               ; preds = %3
  %12 = load i64, ptr %5, align 8, !tbaa !10
  %13 = udiv i64 %12, 8
  %14 = udiv i64 %13, 8
  %15 = load ptr, ptr %6, align 8, !tbaa !105
  store i64 %14, ptr %15, align 8, !tbaa !10
  %16 = load i64, ptr %5, align 8, !tbaa !10
  %17 = urem i64 %16, 64
  %18 = shl i64 1, %17
  %19 = load ptr, ptr %7, align 8, !tbaa !105
  store i64 %18, ptr %19, align 8, !tbaa !10
  store i32 0, ptr %4, align 4
  br label %20

20:                                               ; preds = %11, %10
  %21 = load i32, ptr %4, align 4
  ret i32 %21
}

; Function Attrs: nounwind uwtable
define dso_local i32 @ACLGetSelectorCommandBit(ptr noundef %0, i64 noundef %1) #0 {
  %3 = alloca i32, align 4
  %4 = alloca ptr, align 8
  %5 = alloca i64, align 8
  %6 = alloca i64, align 8
  %7 = alloca i64, align 8
  %8 = alloca i32, align 4
  store ptr %0, ptr %4, align 8, !tbaa !32
  store i64 %1, ptr %5, align 8, !tbaa !10
  call void @llvm.lifetime.start.p0(i64 8, ptr %6) #14
  call void @llvm.lifetime.start.p0(i64 8, ptr %7) #14
  %9 = load i64, ptr %5, align 8, !tbaa !10
  %10 = call i32 @ACLGetCommandBitCoordinates(i64 noundef %9, ptr noundef %6, ptr noundef %7)
  %11 = icmp eq i32 %10, -1
  br i1 %11, label %12, label %13

12:                                               ; preds = %2
  store i32 0, ptr %3, align 4
  store i32 1, ptr %8, align 4
  br label %23

13:                                               ; preds = %2
  %14 = load ptr, ptr %4, align 8, !tbaa !32
  %15 = getelementptr inbounds nuw %struct.aclSelector, ptr %14, i32 0, i32 1
  %16 = load i64, ptr %6, align 8, !tbaa !10
  %17 = getelementptr inbounds nuw [16 x i64], ptr %15, i64 0, i64 %16
  %18 = load i64, ptr %17, align 8, !tbaa !10
  %19 = load i64, ptr %7, align 8, !tbaa !10
  %20 = and i64 %18, %19
  %21 = icmp ne i64 %20, 0
  %22 = zext i1 %21 to i32
  store i32 %22, ptr %3, align 4
  store i32 1, ptr %8, align 4
  br label %23

23:                                               ; preds = %13, %12
  call void @llvm.lifetime.end.p0(i64 8, ptr %7) #14
  call void @llvm.lifetime.end.p0(i64 8, ptr %6) #14
  %24 = load i32, ptr %3, align 4
  ret i32 %24
}

; Function Attrs: nounwind uwtable
define dso_local void @ACLCountCategoryBitsForCommands(ptr noundef %0, ptr noundef %1, ptr noundef %2, ptr noundef %3, i64 noundef %4) #0 {
  %6 = alloca ptr, align 8
  %7 = alloca ptr, align 8
  %8 = alloca ptr, align 8
  %9 = alloca ptr, align 8
  %10 = alloca i64, align 8
  %11 = alloca ptr, align 8
  %12 = alloca ptr, align 8
  %13 = alloca ptr, align 8
  store ptr %0, ptr %6, align 8, !tbaa !121
  store ptr %1, ptr %7, align 8, !tbaa !32
  store ptr %2, ptr %8, align 8, !tbaa !105
  store ptr %3, ptr %9, align 8, !tbaa !105
  store i64 %4, ptr %10, align 8, !tbaa !10
  call void @llvm.lifetime.start.p0(i64 8, ptr %11) #14
  %14 = load ptr, ptr %6, align 8, !tbaa !121
  %15 = call ptr @dictGetIterator(ptr noundef %14)
  store ptr %15, ptr %11, align 8, !tbaa !116
  call void @llvm.lifetime.start.p0(i64 8, ptr %12) #14
  br label %16

16:                                               ; preds = %59, %5
  %17 = load ptr, ptr %11, align 8, !tbaa !116
  %18 = call ptr @dictNext(ptr noundef %17)
  store ptr %18, ptr %12, align 8, !tbaa !118
  %19 = icmp ne ptr %18, null
  br i1 %19, label %20, label %60

20:                                               ; preds = %16
  call void @llvm.lifetime.start.p0(i64 8, ptr %13) #14
  %21 = load ptr, ptr %12, align 8, !tbaa !118
  %22 = call ptr @dictGetVal(ptr noundef %21)
  store ptr %22, ptr %13, align 8, !tbaa !108
  %23 = load ptr, ptr %13, align 8, !tbaa !108
  %24 = getelementptr inbounds nuw %struct.redisCommand, ptr %23, i32 0, i32 15
  %25 = load i64, ptr %24, align 8, !tbaa !122
  %26 = load i64, ptr %10, align 8, !tbaa !10
  %27 = and i64 %25, %26
  %28 = icmp ne i64 %27, 0
  br i1 %28, label %29, label %46

29:                                               ; preds = %20
  %30 = load ptr, ptr %7, align 8, !tbaa !32
  %31 = load ptr, ptr %13, align 8, !tbaa !108
  %32 = getelementptr inbounds nuw %struct.redisCommand, ptr %31, i32 0, i32 26
  %33 = load i32, ptr %32, align 8, !tbaa !109
  %34 = sext i32 %33 to i64
  %35 = call i32 @ACLGetSelectorCommandBit(ptr noundef %30, i64 noundef %34)
  %36 = icmp ne i32 %35, 0
  br i1 %36, label %37, label %41

37:                                               ; preds = %29
  %38 = load ptr, ptr %8, align 8, !tbaa !105
  %39 = load i64, ptr %38, align 8, !tbaa !10
  %40 = add i64 %39, 1
  store i64 %40, ptr %38, align 8, !tbaa !10
  br label %45

41:                                               ; preds = %29
  %42 = load ptr, ptr %9, align 8, !tbaa !105
  %43 = load i64, ptr %42, align 8, !tbaa !10
  %44 = add i64 %43, 1
  store i64 %44, ptr %42, align 8, !tbaa !10
  br label %45

45:                                               ; preds = %41, %37
  br label %46

46:                                               ; preds = %45, %20
  %47 = load ptr, ptr %13, align 8, !tbaa !108
  %48 = getelementptr inbounds nuw %struct.redisCommand, ptr %47, i32 0, i32 30
  %49 = load ptr, ptr %48, align 8, !tbaa !115
  %50 = icmp ne ptr %49, null
  br i1 %50, label %51, label %59

51:                                               ; preds = %46
  %52 = load ptr, ptr %13, align 8, !tbaa !108
  %53 = getelementptr inbounds nuw %struct.redisCommand, ptr %52, i32 0, i32 30
  %54 = load ptr, ptr %53, align 8, !tbaa !115
  %55 = load ptr, ptr %7, align 8, !tbaa !32
  %56 = load ptr, ptr %8, align 8, !tbaa !105
  %57 = load ptr, ptr %9, align 8, !tbaa !105
  %58 = load i64, ptr %10, align 8, !tbaa !10
  call void @ACLCountCategoryBitsForCommands(ptr noundef %54, ptr noundef %55, ptr noundef %56, ptr noundef %57, i64 noundef %58)
  br label %59

59:                                               ; preds = %51, %46
  call void @llvm.lifetime.end.p0(i64 8, ptr %13) #14
  br label %16, !llvm.loop !138

60:                                               ; preds = %16
  %61 = load ptr, ptr %11, align 8, !tbaa !116
  call void @dictReleaseIterator(ptr noundef %61)
  call void @llvm.lifetime.end.p0(i64 8, ptr %12) #14
  call void @llvm.lifetime.end.p0(i64 8, ptr %11) #14
  ret void
}