; Function Attrs: nounwind uwtable
define dso_local void @ACLCountCategoryBitsForCommands(ptr noundef %0, ptr noundef readonly captures(none) %1, ptr noundef captures(none) %2, ptr noundef captures(none) %3, i64 noundef %4) local_unnamed_addr #0 {
  %6 = tail call ptr @dictGetIterator(ptr noundef %0) #25
  %7 = tail call ptr @dictNext(ptr noundef %6) #25
  %.not21 = icmp eq ptr %7, null
  br i1 %.not21, label %._crit_edge, label %.lr.ph

.lr.ph:                                           ; preds = %5
  %8 = getelementptr inbounds nuw i8, ptr %1, i64 8
  br label %9

9:                                                ; preds = %.lr.ph, %32
  %10 = phi ptr [ %7, %.lr.ph ], [ %33, %32 ]
  %11 = tail call ptr @dictGetVal(ptr noundef nonnull %10) #25
  %12 = getelementptr inbounds nuw i8, ptr %11, i64 120
  %13 = load i64, ptr %12, align 8, !tbaa !113
  %14 = and i64 %13, %4
  %.not16 = icmp eq i64 %14, 0
  br i1 %.not16, label %28, label %15

15:                                               ; preds = %9
  %16 = getelementptr inbounds nuw i8, ptr %11, i64 208
  %17 = load i32, ptr %16, align 8, !tbaa !104
  %18 = icmp ugt i32 %17, 1023
  br i1 %18, label %ACLGetSelectorCommandBit.exit.thread, label %ACLGetSelectorCommandBit.exit

ACLGetSelectorCommandBit.exit:                    ; preds = %15
  %19 = zext nneg i32 %17 to i64
  %20 = lshr i64 %19, 6
  %21 = and i64 %19, 63
  %22 = getelementptr inbounds nuw [16 x i64], ptr %8, i64 0, i64 %20
  %23 = load i64, ptr %22, align 8, !tbaa !5
  %24 = shl nuw i64 1, %21
  %25 = and i64 %23, %24
  %.not17 = icmp eq i64 %25, 0
  br i1 %.not17, label %ACLGetSelectorCommandBit.exit.thread, label %.sink.split

ACLGetSelectorCommandBit.exit.thread:             ; preds = %15, %ACLGetSelectorCommandBit.exit
  br label %.sink.split

.sink.split:                                      ; preds = %ACLGetSelectorCommandBit.exit, %ACLGetSelectorCommandBit.exit.thread
  %.sink = phi ptr [ %3, %ACLGetSelectorCommandBit.exit.thread ], [ %2, %ACLGetSelectorCommandBit.exit ]
  %26 = load i64, ptr %.sink, align 8, !tbaa !5
  %27 = add i64 %26, 1
  store i64 %27, ptr %.sink, align 8, !tbaa !5
  br label %28

28:                                               ; preds = %.sink.split, %9
  %29 = getelementptr inbounds nuw i8, ptr %11, i64 288
  %30 = load ptr, ptr %29, align 8, !tbaa !111
  %.not18 = icmp eq ptr %30, null
  br i1 %.not18, label %32, label %31

31:                                               ; preds = %28
  tail call void @ACLCountCategoryBitsForCommands(ptr noundef nonnull %30, ptr noundef %1, ptr noundef %2, ptr noundef %3, i64 noundef %4)
  br label %32

32:                                               ; preds = %31, %28
  %33 = tail call ptr @dictNext(ptr noundef %6) #25
  %.not = icmp eq ptr %33, null
  br i1 %.not, label %._crit_edge, label %9, !llvm.loop !130

._crit_edge:                                      ; preds = %32, %5
  tail call void @dictReleaseIterator(ptr noundef %6) #25
  ret void
}